target datalayout = "e-m:e-p270:32:32-p271:32:32-p272:64:64-i64:64-i128:128-f80:128-n8:16:32:64-S128"
target triple = "x86_64-pc-linux-gnu"

%struct.SDL_Haptic = type { i32, ptr, ptr, i32, i32, i32, i32, ptr, i32, i32, %union.SDL_HapticEffect, ptr }
%union.SDL_HapticEffect = type { %struct.SDL_HapticCustom, [16 x i8] }
%struct.SDL_HapticCustom = type { i16, %struct.SDL_HapticDirection, i32, i16, i16, i16, i8, i16, i16, ptr, i16, i16, i16, i16 }
%struct.SDL_HapticDirection = type { i8, [3 x i32] }
%struct.haptic_effect = type { %union.SDL_HapticEffect, ptr }

@.str = private unnamed_addr constant [26 x i8] c"Parameter '%s' is invalid\00", align 1
@.str.1 = private unnamed_addr constant [7 x i8] c"haptic\00", align 1
@.str.23 = private unnamed_addr constant [35 x i8] c"Haptic: Invalid effect identifier.\00", align 1

; Function Attrs: nounwind uwtable
define internal zeroext i1 @ValidEffect(ptr noundef %0, i32 noundef %1) #0 {
  %3 = alloca i1, align 1
  %4 = alloca ptr, align 8
  %5 = alloca i32, align 4
  store ptr %0, ptr %4, align 8
  store i32 %1, ptr %5, align 4
  %6 = load i32, ptr %5, align 4
  %7 = icmp slt i32 %6, 0
  br i1 %7, label %14, label %8

8:                                                ; preds = %2
  %9 = load i32, ptr %5, align 4
  %10 = load ptr, ptr %4, align 8
  %11 = getelementptr inbounds nuw %struct.SDL_Haptic, ptr %10, i32 0, i32 3
  %12 = load i32, ptr %11, align 8
  %13 = icmp sge i32 %9, %12
  br i1 %13, label %14, label %16

14:                                               ; preds = %8, %2
  %15 = call zeroext i1 (ptr, ...) @SDL_SetError_REAL(ptr noundef @.str.23)
  store i1 false, ptr %3, align 1
  br label %17

16:                                               ; preds = %8
  store i1 true, ptr %3, align 1
  br label %17

17:                                               ; preds = %16, %14
  %18 = load i1, ptr %3, align 1
  ret i1 %18
}

; Function Attrs: nounwind uwtable
define hidden zeroext i1 @SDL_RunHapticEffect_REAL(ptr noundef %0, i32 noundef %1, i32 noundef %2) #0 {
  %4 = alloca i1, align 1
  %5 = alloca ptr, align 8
  %6 = alloca i32, align 4
  %7 = alloca i32, align 4
  store ptr %0, ptr %5, align 8
  store i32 %1, ptr %6, align 4
  store i32 %2, ptr %7, align 4
  %8 = load ptr, ptr %5, align 8
  %9 = call zeroext i1 @SDL_ObjectValid(ptr noundef %8, i32 noundef 6)
  br i1 %9, label %12, label %10

10:                                               ; preds = %3
  %11 = call zeroext i1 (ptr, ...) @SDL_SetError_REAL(ptr noundef @.str, ptr noundef @.str.1)
  store i1 false, ptr %4, align 1
  br label %37

12:                                               ; preds = %3
  %13 = load ptr, ptr %5, align 8
  %14 = call zeroext i1 @SDL_HIDAPI_HapticIsHidapi(ptr noundef %13)
  br i1 %14, label %15, label %20

15:                                               ; preds = %12
  %16 = load ptr, ptr %5, align 8
  %17 = load i32, ptr %6, align 4
  %18 = load i32, ptr %7, align 4
  %19 = call zeroext i1 @SDL_HIDAPI_HapticRunEffect(ptr noundef %16, i32 noundef %17, i32 noundef %18)
  store i1 %19, ptr %4, align 1
  br label %37

20:                                               ; preds = %12
  %21 = load ptr, ptr %5, align 8
  %22 = load i32, ptr %6, align 4
  %23 = call zeroext i1 @ValidEffect(ptr noundef %21, i32 noundef %22)
  br i1 %23, label %25, label %24

24:                                               ; preds = %20
  store i1 false, ptr %4, align 1
  br label %37

25:                                               ; preds = %20
  %26 = load ptr, ptr %5, align 8
  %27 = load ptr, ptr %5, align 8
  %28 = getelementptr inbounds nuw %struct.SDL_Haptic, ptr %27, i32 0, i32 2
  %29 = load ptr, ptr %28, align 8
  %30 = load i32, ptr %6, align 4
  %31 = sext i32 %30 to i64
  %32 = getelementptr inbounds %struct.haptic_effect, ptr %29, i64 %31
  %33 = load i32, ptr %7, align 4
  %34 = call zeroext i1 @SDL_SYS_HapticRunEffect(ptr noundef %26, ptr noundef %32, i32 noundef %33)
  br i1 %34, label %36, label %35

35:                                               ; preds = %25
  store i1 false, ptr %4, align 1
  br label %37

36:                                               ; preds = %25
  store i1 true, ptr %4, align 1
  br label %37

37:                                               ; preds = %36, %35, %24, %15, %10
  %38 = load i1, ptr %4, align 1
  ret i1 %38
}