; Function Attrs: nounwind uwtable
define hidden zeroext i1 @SDL_RunHapticEffect_REAL(ptr noundef %0, i32 noundef %1, i32 noundef %2) local_unnamed_addr #0 {
  %4 = tail call zeroext i1 @SDL_ObjectValid(ptr noundef %0, i32 noundef 6) #9
  br i1 %4, label %7, label %5

5:                                                ; preds = %3
  %6 = tail call zeroext i1 (ptr, ...) @SDL_SetError_REAL(ptr noundef nonnull @.str, ptr noundef nonnull @.str.1) #9
  br label %23

7:                                                ; preds = %3
  %8 = tail call zeroext i1 @SDL_HIDAPI_HapticIsHidapi(ptr noundef %0) #9
  br i1 %8, label %9, label %11

9:                                                ; preds = %7
  %10 = tail call zeroext i1 @SDL_HIDAPI_HapticRunEffect(ptr noundef %0, i32 noundef %1, i32 noundef %2) #9
  br label %23

11:                                               ; preds = %7
  %12 = icmp slt i32 %1, 0
  br i1 %12, label %ValidEffect.exit, label %13

13:                                               ; preds = %11
  %14 = getelementptr inbounds nuw i8, ptr %0, i64 24
  %15 = load i32, ptr %14, align 8
  %.not.i = icmp slt i32 %1, %15
  br i1 %.not.i, label %17, label %ValidEffect.exit

ValidEffect.exit:                                 ; preds = %11, %13
  %16 = tail call zeroext i1 (ptr, ...) @SDL_SetError_REAL(ptr noundef nonnull @.str.23) #9
  br label %23

17:                                               ; preds = %13
  %18 = getelementptr inbounds nuw i8, ptr %0, i64 16
  %19 = load ptr, ptr %18, align 8
  %20 = zext nneg i32 %1 to i64
  %21 = getelementptr inbounds nuw %struct.haptic_effect, ptr %19, i64 %20
  %22 = tail call zeroext i1 @SDL_SYS_HapticRunEffect(ptr noundef nonnull %0, ptr noundef %21, i32 noundef %2) #9
  br label %23

23:                                               ; preds = %ValidEffect.exit, %17, %9, %5
  %.0 = phi i1 [ %10, %9 ], [ false, %5 ], [ false, %ValidEffect.exit ], [ %22, %17 ]
  ret i1 %.0
}